; Function Attrs: mustprogress nounwind uwtable
define hidden void @_ZN14JvmtiHandshake7executeEP27JvmtiUnitedHandshakeClosureP8_jobject(ptr noundef %0, ptr noundef %1) local_unnamed_addr #0 align 2 {
  %3 = alloca %class.HandleMark, align 8
  %4 = alloca %class.JvmtiVTMSTransitionDisabler, align 8
  %5 = alloca %class.ThreadsListHandle, align 8
  %6 = alloca ptr, align 8
  %7 = alloca ptr, align 8
  %8 = tail call align 8 ptr @llvm.threadlocal.address.p0(ptr align 8 @_ZN6Thread12_thr_currentE)
  %9 = load ptr, ptr %8, align 8
  call void @_ZN10HandleMark10initializeEP6Thread(ptr noundef nonnull align 8 dereferenceable(56) %3, ptr noundef %9) #18
  call void @_ZN27JvmtiVTMSTransitionDisablerC1EP8_jobject(ptr noundef nonnull align 8 dereferenceable(16) %4, ptr noundef %1) #18
  call void @_ZN17ThreadsListHandleC1EP6Thread(ptr noundef nonnull align 8 dereferenceable(56) %5, ptr noundef %9) #18
  store ptr null, ptr %6, align 8
  store ptr null, ptr %7, align 8
  %10 = getelementptr inbounds i8, ptr %5, i64 16
  %11 = load ptr, ptr %10, align 8
  %12 = call noundef i32 @_ZN12JvmtiEnvBase28get_threadOop_and_JavaThreadEP11ThreadsListP8_jobjectP10JavaThreadPS5_PP7oopDesc(ptr noundef %11, ptr noundef %1, ptr noundef %9, ptr noundef nonnull %6, ptr noundef nonnull %7)
  %.not = icmp eq i32 %12, 0
  br i1 %.not, label %15, label %13

13:                                               ; preds = %2
  %14 = getelementptr inbounds i8, ptr %0, i64 16
  store i32 %12, ptr %14, align 8
  br label %33

15:                                               ; preds = %2
  %16 = load ptr, ptr %7, align 8
  %17 = icmp eq ptr %16, null
  br i1 %17, label %_ZN6HandleC2EP6ThreadP7oopDesc.exit, label %18

18:                                               ; preds = %15
  %19 = getelementptr inbounds i8, ptr %9, i64 808
  %20 = load ptr, ptr %19, align 8
  %21 = getelementptr inbounds i8, ptr %20, i64 40
  %22 = load ptr, ptr %21, align 8
  %23 = getelementptr inbounds i8, ptr %20, i64 32
  %24 = load ptr, ptr %23, align 8
  %25 = ptrtoint ptr %22 to i64
  %26 = ptrtoint ptr %24 to i64
  %27 = sub i64 %25, %26
  %.not.i.i.i.i = icmp ult i64 %27, 8
  br i1 %.not.i.i.i.i, label %30, label %28

28:                                               ; preds = %18
  %29 = getelementptr inbounds i8, ptr %24, i64 8
  store ptr %29, ptr %23, align 8
  br label %_ZN10HandleArea15allocate_handleEP7oopDesc.exit.i

30:                                               ; preds = %18
  %31 = call noundef ptr @_ZN5Arena4growEmN17AllocFailStrategy13AllocFailEnumE(ptr noundef nonnull align 8 dereferenceable(48) %20, i64 noundef 8, i32 noundef 0) #18
  br label %_ZN10HandleArea15allocate_handleEP7oopDesc.exit.i

_ZN10HandleArea15allocate_handleEP7oopDesc.exit.i: ; preds = %30, %28
  %.0.i.i.i.i = phi ptr [ %24, %28 ], [ %31, %30 ]
  store ptr %16, ptr %.0.i.i.i.i, align 8
  br label %_ZN6HandleC2EP6ThreadP7oopDesc.exit

_ZN6HandleC2EP6ThreadP7oopDesc.exit:              ; preds = %15, %_ZN10HandleArea15allocate_handleEP7oopDesc.exit.i
  %storemerge.i = phi ptr [ %.0.i.i.i.i, %_ZN10HandleArea15allocate_handleEP7oopDesc.exit.i ], [ null, %15 ]
  %32 = load ptr, ptr %6, align 8
  call void @_ZN14JvmtiHandshake7executeEP27JvmtiUnitedHandshakeClosureP17ThreadsListHandleP10JavaThread6Handle(ptr noundef %0, ptr noundef nonnull %5, ptr noundef %32, ptr %storemerge.i)
  br label %33

33:                                               ; preds = %_ZN6HandleC2EP6ThreadP7oopDesc.exit, %13
  call void @_ZN17ThreadsListHandleD1Ev(ptr noundef nonnull align 8 dereferenceable(56) %5) #18
  call void @_ZN27JvmtiVTMSTransitionDisablerD1Ev(ptr noundef nonnull align 8 dereferenceable(16) %4) #18
  call void @_ZN10HandleMarkD1Ev(ptr noundef nonnull align 8 dereferenceable(56) %3) #18
  ret void
}